; Function Attrs: nounwind uwtable
define i32 @EVP_PKEY_cmp_parameters(ptr noundef %0, ptr noundef %1) local_unnamed_addr #0 {
  %3 = getelementptr inbounds nuw i8, ptr %0, i64 96
  %4 = load ptr, ptr %3, align 8, !tbaa !30
  %.not.i = icmp eq ptr %4, null
  br i1 %.not.i, label %5, label %8

5:                                                ; preds = %2
  %6 = getelementptr inbounds nuw i8, ptr %1, i64 96
  %7 = load ptr, ptr %6, align 8, !tbaa !30
  %.not13.i = icmp eq ptr %7, null
  br i1 %.not13.i, label %10, label %8

8:                                                ; preds = %5, %2
  %9 = tail call fastcc i32 @evp_pkey_cmp_any(ptr noundef nonnull %0, ptr noundef %1, i32 noundef 4)
  br label %EVP_PKEY_parameters_eq.exit

10:                                               ; preds = %5
  %11 = load i32, ptr %0, align 8, !tbaa !26
  %12 = load i32, ptr %1, align 8, !tbaa !26
  %.not14.i = icmp eq i32 %11, %12
  br i1 %.not14.i, label %13, label %EVP_PKEY_parameters_eq.exit

13:                                               ; preds = %10
  %14 = getelementptr inbounds nuw i8, ptr %0, i64 8
  %15 = load ptr, ptr %14, align 8, !tbaa !20
  %.not15.i = icmp eq ptr %15, null
  br i1 %.not15.i, label %EVP_PKEY_parameters_eq.exit, label %16

16:                                               ; preds = %13
  %17 = getelementptr inbounds nuw i8, ptr %15, i64 144
  %18 = load ptr, ptr %17, align 8, !tbaa !32
  %.not16.i = icmp eq ptr %18, null
  br i1 %.not16.i, label %EVP_PKEY_parameters_eq.exit, label %19

19:                                               ; preds = %16
  %20 = tail call i32 %18(ptr noundef nonnull %0, ptr noundef nonnull %1) #12
  br label %EVP_PKEY_parameters_eq.exit

EVP_PKEY_parameters_eq.exit:                      ; preds = %8, %10, %13, %16, %19
  %.0.i = phi i32 [ %9, %8 ], [ %20, %19 ], [ -1, %10 ], [ -2, %16 ], [ -2, %13 ]
  ret i32 %.0.i
}